; Function Attrs: mustprogress uwtable
define void @_ZNK8facebook5velox4core8PlanNode15leafPlanNodeIdsB5cxx11Ev(ptr noalias nonnull sret(%"class.std::unordered_set") align 8 %agg.result, ptr noundef nonnull align 8 dereferenceable(40) %this) local_unnamed_addr #0 align 2 personality ptr @__gxx_personality_v0 {
entry:
  %_M_single_bucket.i.i = getelementptr inbounds i8, ptr %agg.result, i64 48
  store ptr %_M_single_bucket.i.i, ptr %agg.result, align 8
  %_M_bucket_count.i.i = getelementptr inbounds i8, ptr %agg.result, i64 8
  store i64 1, ptr %_M_bucket_count.i.i, align 8
  %_M_before_begin.i.i = getelementptr inbounds i8, ptr %agg.result, i64 16
  %_M_rehash_policy.i.i = getelementptr inbounds i8, ptr %agg.result, i64 32
  tail call void @llvm.memset.p0.i64(ptr noundef nonnull align 8 dereferenceable(16) %_M_before_begin.i.i, i8 0, i64 16, i1 false)
  store float 1.000000e+00, ptr %_M_rehash_policy.i.i, align 8
  %_M_next_resize.i.i.i = getelementptr inbounds i8, ptr %agg.result, i64 40
  tail call void @llvm.memset.p0.i64(ptr noundef nonnull align 8 dereferenceable(16) %_M_next_resize.i.i.i, i8 0, i64 16, i1 false)
  invoke fastcc void @_ZN8facebook5velox4core12_GLOBAL__N_122collectLeafPlanNodeIdsERKNS1_8PlanNodeERSt13unordered_setINSt7__cxx1112basic_stringIcSt11char_traitsIcESaIcEEESt4hashISC_ESt8equal_toISC_ESaISC_EE(ptr noundef nonnull align 8 dereferenceable(40) %this, ptr noundef nonnull align 8 dereferenceable(56) %agg.result)
          to label %nrvo.skipdtor unwind label %lpad

lpad:                                             ; preds = %entry
  %0 = landingpad { ptr, i32 }
          cleanup
  tail call void @_ZNSt13unordered_setINSt7__cxx1112basic_stringIcSt11char_traitsIcESaIcEEESt4hashIS5_ESt8equal_toIS5_ESaIS5_EED2Ev(ptr noundef nonnull align 8 dereferenceable(56) %agg.result) #30
  resume { ptr, i32 } %0

nrvo.skipdtor:                                    ; preds = %entry
  ret void
}